target datalayout = "e-m:e-p270:32:32-p271:32:32-p272:64:64-i64:64-i128:128-f80:128-n8:16:32:64-S128"
target triple = "x86_64-pc-linux-gnu"

%struct._bluetooth_data_t = type { i32, i32, ptr, ptr, ptr, ptr, ptr, ptr, ptr, ptr, ptr, ptr, ptr, i32, %union.anon }
%union.anon = type { ptr }

@hf_bthci_evt_bd_addr = internal global i32 0, align 4
@hf_bthci_evt_clock_offset = internal global i32 0, align 4
@hf_bthci_evt_page_scan_mode = internal global i32 0, align 4
@hf_bthci_evt_page_scan_repetition_mode = internal global i32 0, align 4
@hf_bthci_evt_page_scan_period_mode = internal global i32 0, align 4
@hf_bthci_evt_num_responses = internal global i32 0, align 4
@btcommon_cod_handle = internal global ptr null, align 8

; Function Attrs: null_pointer_is_valid sspstrong uwtable
define internal i32 @dissect_bthci_evt_inquire_result(ptr noundef %0, i32 noundef %1, ptr noundef %2, ptr noundef %3, ptr noundef %4) #1 {
  %6 = alloca ptr, align 8
  %7 = alloca i32, align 4
  %8 = alloca ptr, align 8
  %9 = alloca ptr, align 8
  %10 = alloca ptr, align 8
  %11 = alloca i8, align 1
  %12 = alloca i8, align 1
  store ptr %0, ptr %6, align 8
  store i32 %1, ptr %7, align 4
  store ptr %2, ptr %8, align 8
  store ptr %3, ptr %9, align 8
  store ptr %4, ptr %10, align 8
  call void @llvm.lifetime.start.p0(i64 1, ptr %11) #11
  call void @llvm.lifetime.start.p0(i64 1, ptr %12) #11
  %13 = load ptr, ptr %6, align 8
  %14 = load i32, ptr %7, align 4
  %15 = call zeroext i8 @tvb_get_uint8(ptr noundef %13, i32 noundef %14)
  store i8 %15, ptr %12, align 1
  %16 = load ptr, ptr %9, align 8
  %17 = load i32, ptr @hf_bthci_evt_num_responses, align 4
  %18 = load ptr, ptr %6, align 8
  %19 = load i32, ptr %7, align 4
  %20 = call ptr @proto_tree_add_item(ptr noundef %16, i32 noundef %17, ptr noundef %18, i32 noundef %19, i32 noundef 1, i32 noundef -2147483648)
  %21 = load i32, ptr %7, align 4
  %22 = add i32 %21, 1
  store i32 %22, ptr %7, align 4
  store i8 0, ptr %11, align 1
  br label %23

23:                                               ; preds = %79, %5
  %24 = load i8, ptr %11, align 1
  %25 = zext i8 %24 to i32
  %26 = load i8, ptr %12, align 1
  %27 = zext i8 %26 to i32
  %28 = icmp slt i32 %25, %27
  br i1 %28, label %29, label %82

29:                                               ; preds = %23
  %30 = load i32, ptr @hf_bthci_evt_bd_addr, align 4
  %31 = load ptr, ptr %8, align 8
  %32 = load ptr, ptr %9, align 8
  %33 = load ptr, ptr %6, align 8
  %34 = load i32, ptr %7, align 4
  %35 = load ptr, ptr %10, align 8
  %36 = getelementptr inbounds nuw %struct._bluetooth_data_t, ptr %35, i32 0, i32 0
  %37 = load i32, ptr %36, align 8
  %38 = load ptr, ptr %10, align 8
  %39 = getelementptr inbounds nuw %struct._bluetooth_data_t, ptr %38, i32 0, i32 1
  %40 = load i32, ptr %39, align 4
  %41 = call i32 @dissect_bd_addr(i32 noundef %30, ptr noundef %31, ptr noundef %32, ptr noundef %33, i32 noundef %34, i1 noundef zeroext false, i32 noundef %37, i32 noundef %40, ptr noundef null)
  store i32 %41, ptr %7, align 4
  %42 = load ptr, ptr %9, align 8
  %43 = load i32, ptr @hf_bthci_evt_page_scan_repetition_mode, align 4
  %44 = load ptr, ptr %6, align 8
  %45 = load i32, ptr %7, align 4
  %46 = call ptr @proto_tree_add_item(ptr noundef %42, i32 noundef %43, ptr noundef %44, i32 noundef %45, i32 noundef 1, i32 noundef -2147483648)
  %47 = load i32, ptr %7, align 4
  %48 = add i32 %47, 1
  store i32 %48, ptr %7, align 4
  %49 = load ptr, ptr %9, align 8
  %50 = load i32, ptr @hf_bthci_evt_page_scan_period_mode, align 4
  %51 = load ptr, ptr %6, align 8
  %52 = load i32, ptr %7, align 4
  %53 = call ptr @proto_tree_add_item(ptr noundef %49, i32 noundef %50, ptr noundef %51, i32 noundef %52, i32 noundef 1, i32 noundef -2147483648)
  %54 = load i32, ptr %7, align 4
  %55 = add i32 %54, 1
  store i32 %55, ptr %7, align 4
  %56 = load ptr, ptr %9, align 8
  %57 = load i32, ptr @hf_bthci_evt_page_scan_mode, align 4
  %58 = load ptr, ptr %6, align 8
  %59 = load i32, ptr %7, align 4
  %60 = call ptr @proto_tree_add_item(ptr noundef %56, i32 noundef %57, ptr noundef %58, i32 noundef %59, i32 noundef 1, i32 noundef -2147483648)
  %61 = load i32, ptr %7, align 4
  %62 = add i32 %61, 1
  store i32 %62, ptr %7, align 4
  %63 = load ptr, ptr @btcommon_cod_handle, align 8
  %64 = load ptr, ptr %6, align 8
  %65 = load i32, ptr %7, align 4
  %66 = call ptr @tvb_new_subset_length(ptr noundef %64, i32 noundef %65, i32 noundef 3)
  %67 = load ptr, ptr %8, align 8
  %68 = load ptr, ptr %9, align 8
  %69 = call i32 @call_dissector(ptr noundef %63, ptr noundef %66, ptr noundef %67, ptr noundef %68)
  %70 = load i32, ptr %7, align 4
  %71 = add i32 %70, 3
  store i32 %71, ptr %7, align 4
  %72 = load ptr, ptr %9, align 8
  %73 = load i32, ptr @hf_bthci_evt_clock_offset, align 4
  %74 = load ptr, ptr %6, align 8
  %75 = load i32, ptr %7, align 4
  %76 = call ptr @proto_tree_add_item(ptr noundef %72, i32 noundef %73, ptr noundef %74, i32 noundef %75, i32 noundef 2, i32 noundef -2147483648)
  %77 = load i32, ptr %7, align 4
  %78 = add i32 %77, 2
  store i32 %78, ptr %7, align 4
  br label %79

79:                                               ; preds = %29
  %80 = load i8, ptr %11, align 1
  %81 = add i8 %80, 1
  store i8 %81, ptr %11, align 1
  br label %23, !llvm.loop !11

82:                                               ; preds = %23
  %83 = load i32, ptr %7, align 4
  call void @llvm.lifetime.end.p0(i64 1, ptr %12) #11
  call void @llvm.lifetime.end.p0(i64 1, ptr %11) #11
  ret i32 %83
}