; Function Attrs: null_pointer_is_valid sspstrong uwtable
define internal fastcc noundef i32 @dissect_bthci_evt_inquire_result(ptr noundef %0, ptr noundef %1, ptr noundef %2, ptr noundef nonnull readonly captures(none) %3) unnamed_addr #1 {
  %5 = tail call zeroext i8 @tvb_get_uint8(ptr noundef %0, i32 noundef 2)
  %6 = load i32, ptr @hf_bthci_evt_num_responses, align 4
  %7 = tail call ptr @proto_tree_add_item(ptr noundef %2, i32 noundef %6, ptr noundef %0, i32 noundef 2, i32 noundef 1, i32 noundef -2147483648)
  %.not = icmp eq i8 %5, 0
  br i1 %.not, label %._crit_edge, label %.lr.ph

.lr.ph:                                           ; preds = %4
  %8 = getelementptr inbounds nuw i8, ptr %3, i64 4
  br label %9

9:                                                ; preds = %.lr.ph, %9
  %.038 = phi i32 [ 3, %.lr.ph ], [ %29, %9 ]
  %.03637 = phi i8 [ 0, %.lr.ph ], [ %30, %9 ]
  %10 = load i32, ptr @hf_bthci_evt_bd_addr, align 4
  %11 = load i32, ptr %3, align 8
  %12 = load i32, ptr %8, align 4
  %13 = tail call i32 @dissect_bd_addr(i32 noundef %10, ptr noundef %1, ptr noundef %2, ptr noundef %0, i32 noundef %.038, i1 noundef zeroext false, i32 noundef %11, i32 noundef %12, ptr noundef null)
  %14 = load i32, ptr @hf_bthci_evt_page_scan_repetition_mode, align 4
  %15 = tail call ptr @proto_tree_add_item(ptr noundef %2, i32 noundef %14, ptr noundef %0, i32 noundef %13, i32 noundef 1, i32 noundef -2147483648)
  %16 = add i32 %13, 1
  %17 = load i32, ptr @hf_bthci_evt_page_scan_period_mode, align 4
  %18 = tail call ptr @proto_tree_add_item(ptr noundef %2, i32 noundef %17, ptr noundef %0, i32 noundef %16, i32 noundef 1, i32 noundef -2147483648)
  %19 = add i32 %13, 2
  %20 = load i32, ptr @hf_bthci_evt_page_scan_mode, align 4
  %21 = tail call ptr @proto_tree_add_item(ptr noundef %2, i32 noundef %20, ptr noundef %0, i32 noundef %19, i32 noundef 1, i32 noundef -2147483648)
  %22 = add i32 %13, 3
  %23 = load ptr, ptr @btcommon_cod_handle, align 8
  %24 = tail call ptr @tvb_new_subset_length(ptr noundef %0, i32 noundef %22, i32 noundef 3)
  %25 = tail call i32 @call_dissector(ptr noundef %23, ptr noundef %24, ptr noundef %1, ptr noundef %2)
  %26 = add i32 %13, 6
  %27 = load i32, ptr @hf_bthci_evt_clock_offset, align 4
  %28 = tail call ptr @proto_tree_add_item(ptr noundef %2, i32 noundef %27, ptr noundef %0, i32 noundef %26, i32 noundef 2, i32 noundef -2147483648)
  %29 = add i32 %13, 8
  %30 = add nuw i8 %.03637, 1
  %exitcond.not = icmp eq i8 %30, %5
  br i1 %exitcond.not, label %._crit_edge, label %9, !llvm.loop !11

._crit_edge:                                      ; preds = %9, %4
  %.0.lcssa = phi i32 [ 3, %4 ], [ %29, %9 ]
  ret i32 %.0.lcssa
}